target datalayout = "e-m:e-p270:32:32-p271:32:32-p272:64:64-i64:64-i128:128-f80:128-n8:16:32:64-S128"
target triple = "x86_64-pc-linux-gnu"

%class.G1NUMA = type { ptr, i32, ptr, i32, i64, i64, ptr }
%class.G1NodeIndexCheckClosure = type { %class.G1HeapRegionClosure.base, ptr, ptr, ptr, ptr, ptr, ptr }
%class.G1HeapRegionClosure.base = type <{ ptr, i8 }>
%class.G1HeapRegionClosure = type <{ ptr, i8, [7 x i8] }>

@_ZTV23G1NodeIndexCheckClosure = hidden unnamed_addr constant { [3 x ptr] } { [3 x ptr] [ptr null, ptr null, ptr @_ZN23G1NodeIndexCheckClosure14do_heap_regionEP12G1HeapRegion] }, align 8
@_ZTV19G1HeapRegionClosure = linkonce_odr hidden unnamed_addr constant { [3 x ptr] } { [3 x ptr] [ptr null, ptr null, ptr @__cxa_pure_virtual] }, comdat, align 8

; Function Attrs: mustprogress nounwind uwtable
define hidden noundef i32 @_ZNK6G1NUMA16num_active_nodesEv(ptr noundef nonnull align 8 dereferenceable(56) %0) #1 align 2 {
  %2 = alloca ptr, align 8
  store ptr %0, ptr %2, align 8
  %3 = load ptr, ptr %2, align 8
  %4 = getelementptr inbounds %class.G1NUMA, ptr %3, i32 0, i32 3
  %5 = load i32, ptr %4, align 8
  ret i32 %5
}

; Function Attrs: mustprogress nounwind uwtable
define linkonce_odr hidden void @_ZN19G1HeapRegionClosureC2Ev(ptr noundef nonnull align 8 dereferenceable(9) %0) unnamed_addr #1 comdat align 2 {
  %2 = alloca ptr, align 8
  store ptr %0, ptr %2, align 8
  %3 = load ptr, ptr %2, align 8
  store ptr getelementptr inbounds inrange(-16, 8) ({ [3 x ptr] }, ptr @_ZTV19G1HeapRegionClosure, i32 0, i32 0, i32 2), ptr %3, align 8
  %4 = getelementptr inbounds %class.G1HeapRegionClosure, ptr %3, i32 0, i32 1
  store i8 1, ptr %4, align 8
  ret void
}

; Function Attrs: mustprogress nounwind uwtable
define hidden void @_ZN23G1NodeIndexCheckClosureC2EPKcP6G1NUMAP9LogStream(ptr noundef nonnull align 8 dereferenceable(64) %0, ptr noundef %1, ptr noundef %2, ptr noundef %3) unnamed_addr #1 align 2 {
  %5 = alloca ptr, align 8
  %6 = alloca ptr, align 8
  %7 = alloca ptr, align 8
  %8 = alloca ptr, align 8
  %9 = alloca i32, align 4
  store ptr %0, ptr %5, align 8
  store ptr %1, ptr %6, align 8
  store ptr %2, ptr %7, align 8
  store ptr %3, ptr %8, align 8
  %10 = load ptr, ptr %5, align 8
  call void @_ZN19G1HeapRegionClosureC2Ev(ptr noundef nonnull align 8 dereferenceable(9) %10)
  store ptr getelementptr inbounds inrange(-16, 8) ({ [3 x ptr] }, ptr @_ZTV23G1NodeIndexCheckClosure, i32 0, i32 0, i32 2), ptr %10, align 8
  %11 = getelementptr inbounds %class.G1NodeIndexCheckClosure, ptr %10, i32 0, i32 1
  %12 = load ptr, ptr %6, align 8
  store ptr %12, ptr %11, align 8
  %13 = getelementptr inbounds %class.G1NodeIndexCheckClosure, ptr %10, i32 0, i32 2
  %14 = load ptr, ptr %7, align 8
  store ptr %14, ptr %13, align 8
  %15 = getelementptr inbounds %class.G1NodeIndexCheckClosure, ptr %10, i32 0, i32 6
  %16 = load ptr, ptr %8, align 8
  store ptr %16, ptr %15, align 8
  %17 = getelementptr inbounds %class.G1NodeIndexCheckClosure, ptr %10, i32 0, i32 2
  %18 = load ptr, ptr %17, align 8
  %19 = call noundef i32 @_ZNK6G1NUMA16num_active_nodesEv(ptr noundef nonnull align 8 dereferenceable(56) %18)
  store i32 %19, ptr %9, align 4
  %20 = load i32, ptr %9, align 4
  %21 = zext i32 %20 to i64
  %22 = mul i64 %21, 4
  %23 = call noundef ptr @_Z12AllocateHeapm8MEMFLAGSN17AllocFailStrategy13AllocFailEnumE(i64 noundef %22, i8 noundef zeroext 5, i32 noundef 0)
  %24 = getelementptr inbounds %class.G1NodeIndexCheckClosure, ptr %10, i32 0, i32 3
  store ptr %23, ptr %24, align 8
  %25 = load i32, ptr %9, align 4
  %26 = zext i32 %25 to i64
  %27 = mul i64 %26, 4
  %28 = call noundef ptr @_Z12AllocateHeapm8MEMFLAGSN17AllocFailStrategy13AllocFailEnumE(i64 noundef %27, i8 noundef zeroext 5, i32 noundef 0)
  %29 = getelementptr inbounds %class.G1NodeIndexCheckClosure, ptr %10, i32 0, i32 4
  store ptr %28, ptr %29, align 8
  %30 = load i32, ptr %9, align 4
  %31 = zext i32 %30 to i64
  %32 = mul i64 %31, 4
  %33 = call noundef ptr @_Z12AllocateHeapm8MEMFLAGSN17AllocFailStrategy13AllocFailEnumE(i64 noundef %32, i8 noundef zeroext 5, i32 noundef 0)
  %34 = getelementptr inbounds %class.G1NodeIndexCheckClosure, ptr %10, i32 0, i32 5
  store ptr %33, ptr %34, align 8
  %35 = getelementptr inbounds %class.G1NodeIndexCheckClosure, ptr %10, i32 0, i32 3
  %36 = load ptr, ptr %35, align 8
  %37 = load i32, ptr %9, align 4
  %38 = zext i32 %37 to i64
  %39 = mul i64 4, %38
  call void @llvm.memset.p0.i64(ptr align 4 %36, i8 0, i64 %39, i1 false)
  %40 = getelementptr inbounds %class.G1NodeIndexCheckClosure, ptr %10, i32 0, i32 4
  %41 = load ptr, ptr %40, align 8
  %42 = load i32, ptr %9, align 4
  %43 = zext i32 %42 to i64
  %44 = mul i64 4, %43
  call void @llvm.memset.p0.i64(ptr align 4 %41, i8 0, i64 %44, i1 false)
  %45 = getelementptr inbounds %class.G1NodeIndexCheckClosure, ptr %10, i32 0, i32 5
  %46 = load ptr, ptr %45, align 8
  %47 = load i32, ptr %9, align 4
  %48 = zext i32 %47 to i64
  %49 = mul i64 4, %48
  call void @llvm.memset.p0.i64(ptr align 4 %46, i8 0, i64 %49, i1 false)
  ret void
}