; Function Attrs: mustprogress nounwind uwtable
define hidden void @_ZN23G1NodeIndexCheckClosureC2EPKcP6G1NUMAP9LogStream(ptr nocapture noundef nonnull align 8 dereferenceable(64) %0, ptr noundef %1, ptr noundef %2, ptr noundef %3) unnamed_addr #1 align 2 {
  %5 = getelementptr inbounds i8, ptr %0, i64 8
  store i8 1, ptr %5, align 8
  store ptr getelementptr inbounds inrange(-16, 8) (i8, ptr @_ZTV23G1NodeIndexCheckClosure, i64 16), ptr %0, align 8
  %6 = getelementptr inbounds i8, ptr %0, i64 16
  store ptr %1, ptr %6, align 8
  %7 = getelementptr inbounds i8, ptr %0, i64 24
  store ptr %2, ptr %7, align 8
  %8 = getelementptr inbounds i8, ptr %0, i64 56
  store ptr %3, ptr %8, align 8
  %9 = getelementptr inbounds i8, ptr %2, i64 24
  %10 = load i32, ptr %9, align 8
  %11 = zext i32 %10 to i64
  %12 = shl nuw nsw i64 %11, 2
  %13 = tail call noundef ptr @_Z12AllocateHeapm8MEMFLAGSN17AllocFailStrategy13AllocFailEnumE(i64 noundef %12, i8 noundef zeroext 5, i32 noundef 0) #12
  %14 = getelementptr inbounds i8, ptr %0, i64 32
  store ptr %13, ptr %14, align 8
  %15 = tail call noundef ptr @_Z12AllocateHeapm8MEMFLAGSN17AllocFailStrategy13AllocFailEnumE(i64 noundef %12, i8 noundef zeroext 5, i32 noundef 0) #12
  %16 = getelementptr inbounds i8, ptr %0, i64 40
  store ptr %15, ptr %16, align 8
  %17 = tail call noundef ptr @_Z12AllocateHeapm8MEMFLAGSN17AllocFailStrategy13AllocFailEnumE(i64 noundef %12, i8 noundef zeroext 5, i32 noundef 0) #12
  %18 = getelementptr inbounds i8, ptr %0, i64 48
  store ptr %17, ptr %18, align 8
  %19 = load ptr, ptr %14, align 8
  tail call void @llvm.memset.p0.i64(ptr align 4 %19, i8 0, i64 %12, i1 false)
  %20 = load ptr, ptr %16, align 8
  tail call void @llvm.memset.p0.i64(ptr align 4 %20, i8 0, i64 %12, i1 false)
  %21 = load ptr, ptr %18, align 8
  tail call void @llvm.memset.p0.i64(ptr align 4 %21, i8 0, i64 %12, i1 false)
  ret void
}